; Function Attrs: mustprogress nounwind uwtable
define dso_local noundef zeroext i1 @_ZN5clang8SemaWasm19BuiltinWasmTableGetEPNS_8CallExprE(ptr nocapture noundef nonnull readonly align 8 dereferenceable(8) %0, ptr noundef %1) local_unnamed_addr #0 align 2 {
  %3 = alloca %"class.clang::QualType", align 8
  %4 = load ptr, ptr %0, align 8
  %5 = tail call noundef zeroext i1 @_ZN5clang4Sema13checkArgCountEPNS_8CallExprEj(ptr noundef nonnull align 8 dereferenceable(17560) %4, ptr noundef %1, i32 noundef 2) #12
  br i1 %5, label %14, label %6

6:                                                ; preds = %2
  store i64 0, ptr %3, align 8
  %7 = load ptr, ptr %0, align 8
  %8 = call fastcc noundef zeroext i1 @_ZN5clangL26CheckWasmBuiltinArgIsTableERNS_4SemaEPNS_8CallExprEjRNS_8QualTypeE(ptr noundef nonnull align 8 dereferenceable(17560) %7, ptr noundef %1, i32 noundef 0, ptr noundef nonnull align 8 dereferenceable(8) %3)
  br i1 %8, label %14, label %9

9:                                                ; preds = %6
  %10 = load ptr, ptr %0, align 8
  %11 = tail call fastcc noundef zeroext i1 @_ZN5clangL28CheckWasmBuiltinArgIsIntegerERNS_4SemaEPNS_8CallExprEj(ptr noundef nonnull align 8 dereferenceable(17560) %10, ptr noundef %1, i32 noundef 1)
  br i1 %11, label %14, label %12

12:                                               ; preds = %9
  %.sroa.0.0.copyload = load i64, ptr %3, align 8
  %13 = getelementptr inbounds nuw i8, ptr %1, i64 8
  store i64 %.sroa.0.0.copyload, ptr %13, align 8
  br label %14

14:                                               ; preds = %9, %6, %2, %12
  %.0 = phi i1 [ false, %12 ], [ true, %2 ], [ true, %6 ], [ true, %9 ]
  ret i1 %.0
}